; Function Attrs: mustprogress null_pointer_is_valid sspstrong uwtable
define void @_ZN12RsaKeysFrame17libCurrentChangedERK11QModelIndexS2_(ptr noundef readonly align 8 captures(none) dereferenceable_or_null(64) %0, ptr noundef readonly align 8 captures(none) dereferenceable(24) %1, ptr readnone align 8 captures(none) %2) #0 align 2 {
  %4 = getelementptr inbounds nuw i8, ptr %0, i64 40
  %5 = load ptr, ptr %4, align 8
  %6 = getelementptr inbounds nuw i8, ptr %5, i64 112
  %7 = load ptr, ptr %6, align 8
  %8 = load i32, ptr %1, align 8
  %9 = icmp sgt i32 %8, -1
  %10 = getelementptr inbounds nuw i8, ptr %1, i64 4
  %11 = load i32, ptr %10, align 4
  %12 = icmp sgt i32 %11, -1
  %or.cond = select i1 %9, i1 %12, i1 false
  br i1 %or.cond, label %13, label %_ZNK11QModelIndex7isValidEv.exit

13:                                               ; preds = %3
  %14 = getelementptr inbounds nuw i8, ptr %1, i64 16
  %15 = load ptr, ptr %14, align 8
  %16 = icmp ne ptr %15, null
  br label %_ZNK11QModelIndex7isValidEv.exit

_ZNK11QModelIndex7isValidEv.exit:                 ; preds = %3, %13
  %17 = phi i1 [ false, %3 ], [ %16, %13 ]
  tail call void @_ZN7QWidget10setEnabledEb(ptr noundef align 8 dereferenceable_or_null(40) %7, i1 noundef zeroext %17)
  ret void
}